target datalayout = "e-m:e-p270:32:32-p271:32:32-p272:64:64-i64:64-i128:128-f80:128-n8:16:32:64-S128"
target triple = "x86_64-pc-linux-gnu"

%struct.Vec_Ptr_t_ = type { i32, i32, ptr }
%struct.Vec_Int_t_ = type { i32, i32, ptr }
%struct.Abc_Obj_t_ = type { ptr, ptr, i32, i32, %struct.Vec_Int_t_, %struct.Vec_Int_t_, %union.anon, %union.anon.0 }
%union.anon = type { ptr }
%union.anon.0 = type { ptr }

; Function Attrs: inlinehint nounwind uwtable
define internal i32 @Abc_ObjFaninC0(ptr noundef %0) #4 {
  %2 = alloca ptr, align 8
  store ptr %0, ptr %2, align 8, !tbaa !65
  %3 = load ptr, ptr %2, align 8, !tbaa !65
  %4 = getelementptr inbounds nuw %struct.Abc_Obj_t_, ptr %3, i32 0, i32 3
  %5 = load i32, ptr %4, align 4
  %6 = lshr i32 %5, 10
  %7 = and i32 %6, 1
  ret i32 %7
}

; Function Attrs: inlinehint nounwind uwtable
define internal i32 @Abc_ObjFaninId0(ptr noundef %0) #4 {
  %2 = alloca ptr, align 8
  store ptr %0, ptr %2, align 8, !tbaa !65
  %3 = load ptr, ptr %2, align 8, !tbaa !65
  %4 = getelementptr inbounds nuw %struct.Abc_Obj_t_, ptr %3, i32 0, i32 4
  %5 = getelementptr inbounds nuw %struct.Vec_Int_t_, ptr %4, i32 0, i32 2
  %6 = load ptr, ptr %5, align 8, !tbaa !91
  %7 = getelementptr inbounds i32, ptr %6, i64 0
  %8 = load i32, ptr %7, align 4, !tbaa !3
  ret i32 %8
}

; Function Attrs: inlinehint nounwind uwtable
define internal ptr @Vec_PtrEntry(ptr noundef %0, i32 noundef %1) #4 {
  %3 = alloca ptr, align 8
  %4 = alloca i32, align 4
  store ptr %0, ptr %3, align 8, !tbaa !44
  store i32 %1, ptr %4, align 4, !tbaa !3
  %5 = load ptr, ptr %3, align 8, !tbaa !44
  %6 = getelementptr inbounds nuw %struct.Vec_Ptr_t_, ptr %5, i32 0, i32 2
  %7 = load ptr, ptr %6, align 8, !tbaa !61
  %8 = load i32, ptr %4, align 4, !tbaa !3
  %9 = sext i32 %8 to i64
  %10 = getelementptr inbounds ptr, ptr %7, i64 %9
  %11 = load ptr, ptr %10, align 8, !tbaa !27
  ret ptr %11
}

; Function Attrs: nounwind uwtable
define void @Res_SimTransferOne(ptr noundef %0, ptr noundef %1, i32 noundef %2) #0 {
  %4 = alloca ptr, align 8
  %5 = alloca ptr, align 8
  %6 = alloca i32, align 4
  %7 = alloca ptr, align 8
  %8 = alloca ptr, align 8
  %9 = alloca i32, align 4
  %10 = alloca i32, align 4
  store ptr %0, ptr %4, align 8, !tbaa !65
  store ptr %1, ptr %5, align 8, !tbaa !44
  store i32 %2, ptr %6, align 4, !tbaa !3
  call void @llvm.lifetime.start.p0(i64 8, ptr %7) #7
  call void @llvm.lifetime.start.p0(i64 8, ptr %8) #7
  call void @llvm.lifetime.start.p0(i64 4, ptr %9) #7
  call void @llvm.lifetime.start.p0(i64 4, ptr %10) #7
  %11 = load ptr, ptr %5, align 8, !tbaa !44
  %12 = load ptr, ptr %4, align 8, !tbaa !65
  %13 = getelementptr inbounds nuw %struct.Abc_Obj_t_, ptr %12, i32 0, i32 2
  %14 = load i32, ptr %13, align 8, !tbaa !67
  %15 = call ptr @Vec_PtrEntry(ptr noundef %11, i32 noundef %14)
  store ptr %15, ptr %7, align 8, !tbaa !28
  %16 = load ptr, ptr %5, align 8, !tbaa !44
  %17 = load ptr, ptr %4, align 8, !tbaa !65
  %18 = call i32 @Abc_ObjFaninId0(ptr noundef %17)
  %19 = call ptr @Vec_PtrEntry(ptr noundef %16, i32 noundef %18)
  store ptr %19, ptr %8, align 8, !tbaa !28
  %20 = load ptr, ptr %4, align 8, !tbaa !65
  %21 = call i32 @Abc_ObjFaninC0(ptr noundef %20)
  store i32 %21, ptr %10, align 4, !tbaa !3
  %22 = load i32, ptr %10, align 4, !tbaa !3
  %23 = icmp ne i32 %22, 0
  br i1 %23, label %24, label %44

24:                                               ; preds = %3
  store i32 0, ptr %9, align 4, !tbaa !3
  br label %25

25:                                               ; preds = %40, %24
  %26 = load i32, ptr %9, align 4, !tbaa !3
  %27 = load i32, ptr %6, align 4, !tbaa !3
  %28 = icmp slt i32 %26, %27
  br i1 %28, label %29, label %43

29:                                               ; preds = %25
  %30 = load ptr, ptr %8, align 8, !tbaa !28
  %31 = load i32, ptr %9, align 4, !tbaa !3
  %32 = sext i32 %31 to i64
  %33 = getelementptr inbounds i32, ptr %30, i64 %32
  %34 = load i32, ptr %33, align 4, !tbaa !3
  %35 = xor i32 %34, -1
  %36 = load ptr, ptr %7, align 8, !tbaa !28
  %37 = load i32, ptr %9, align 4, !tbaa !3
  %38 = sext i32 %37 to i64
  %39 = getelementptr inbounds i32, ptr %36, i64 %38
  store i32 %35, ptr %39, align 4, !tbaa !3
  br label %40

40:                                               ; preds = %29
  %41 = load i32, ptr %9, align 4, !tbaa !3
  %42 = add nsw i32 %41, 1
  store i32 %42, ptr %9, align 4, !tbaa !3
  br label %25, !llvm.loop !92

43:                                               ; preds = %25
  br label %63

44:                                               ; preds = %3
  store i32 0, ptr %9, align 4, !tbaa !3
  br label %45

45:                                               ; preds = %59, %44
  %46 = load i32, ptr %9, align 4, !tbaa !3
  %47 = load i32, ptr %6, align 4, !tbaa !3
  %48 = icmp slt i32 %46, %47
  br i1 %48, label %49, label %62

49:                                               ; preds = %45
  %50 = load ptr, ptr %8, align 8, !tbaa !28
  %51 = load i32, ptr %9, align 4, !tbaa !3
  %52 = sext i32 %51 to i64
  %53 = getelementptr inbounds i32, ptr %50, i64 %52
  %54 = load i32, ptr %53, align 4, !tbaa !3
  %55 = load ptr, ptr %7, align 8, !tbaa !28
  %56 = load i32, ptr %9, align 4, !tbaa !3
  %57 = sext i32 %56 to i64
  %58 = getelementptr inbounds i32, ptr %55, i64 %57
  store i32 %54, ptr %58, align 4, !tbaa !3
  br label %59

59:                                               ; preds = %49
  %60 = load i32, ptr %9, align 4, !tbaa !3
  %61 = add nsw i32 %60, 1
  store i32 %61, ptr %9, align 4, !tbaa !3
  br label %45, !llvm.loop !93

62:                                               ; preds = %45
  br label %63

63:                                               ; preds = %62, %43
  call void @llvm.lifetime.end.p0(i64 4, ptr %10) #7
  call void @llvm.lifetime.end.p0(i64 4, ptr %9) #7
  call void @llvm.lifetime.end.p0(i64 8, ptr %8) #7
  call void @llvm.lifetime.end.p0(i64 8, ptr %7) #7
  ret void
}