; Function Attrs: nofree norecurse nosync nounwind memory(readwrite, inaccessiblemem: none) uwtable
define void @Res_SimTransferOne(ptr noundef readonly captures(none) %0, ptr noundef readonly captures(none) %1, i32 noundef %2) local_unnamed_addr #7 {
  %4 = getelementptr inbounds nuw i8, ptr %0, i64 16
  %5 = load i32, ptr %4, align 8, !tbaa !62
  %6 = getelementptr i8, ptr %1, i64 8
  %.val19 = load ptr, ptr %6, align 8, !tbaa !25
  %7 = sext i32 %5 to i64
  %8 = getelementptr inbounds ptr, ptr %.val19, i64 %7
  %9 = load ptr, ptr %8, align 8, !tbaa !19
  %10 = getelementptr i8, ptr %0, i64 32
  %.val20 = load ptr, ptr %10, align 8, !tbaa !85
  %.val20.val = load i32, ptr %.val20, align 4, !tbaa !59
  %11 = sext i32 %.val20.val to i64
  %12 = getelementptr inbounds ptr, ptr %.val19, i64 %11
  %13 = load ptr, ptr %12, align 8, !tbaa !19
  %14 = getelementptr i8, ptr %0, i64 20
  %.val21 = load i32, ptr %14, align 4
  %15 = and i32 %.val21, 1024
  %.not = icmp eq i32 %15, 0
  %16 = icmp sgt i32 %2, 0
  br i1 %.not, label %.preheader, label %.preheader22

.preheader22:                                     ; preds = %3
  br i1 %16, label %.lr.ph.preheader, label %.loopexit

.lr.ph.preheader:                                 ; preds = %.preheader22
  %wide.trip.count = zext nneg i32 %2 to i64
  br label %.lr.ph

.preheader:                                       ; preds = %3
  br i1 %16, label %.lr.ph26.preheader, label %.loopexit

.lr.ph26.preheader:                               ; preds = %.preheader
  %wide.trip.count32 = zext nneg i32 %2 to i64
  br label %.lr.ph26

.lr.ph:                                           ; preds = %.lr.ph.preheader, %.lr.ph
  %indvars.iv = phi i64 [ 0, %.lr.ph.preheader ], [ %indvars.iv.next, %.lr.ph ]
  %17 = getelementptr inbounds nuw i32, ptr %13, i64 %indvars.iv
  %18 = load i32, ptr %17, align 4, !tbaa !59
  %19 = xor i32 %18, -1
  %20 = getelementptr inbounds nuw i32, ptr %9, i64 %indvars.iv
  store i32 %19, ptr %20, align 4, !tbaa !59
  %indvars.iv.next = add nuw nsw i64 %indvars.iv, 1
  %exitcond.not = icmp eq i64 %indvars.iv.next, %wide.trip.count
  br i1 %exitcond.not, label %.loopexit, label %.lr.ph, !llvm.loop !90

.lr.ph26:                                         ; preds = %.lr.ph26.preheader, %.lr.ph26
  %indvars.iv29 = phi i64 [ 0, %.lr.ph26.preheader ], [ %indvars.iv.next30, %.lr.ph26 ]
  %21 = getelementptr inbounds nuw i32, ptr %13, i64 %indvars.iv29
  %22 = load i32, ptr %21, align 4, !tbaa !59
  %23 = getelementptr inbounds nuw i32, ptr %9, i64 %indvars.iv29
  store i32 %22, ptr %23, align 4, !tbaa !59
  %indvars.iv.next30 = add nuw nsw i64 %indvars.iv29, 1
  %exitcond33.not = icmp eq i64 %indvars.iv.next30, %wide.trip.count32
  br i1 %exitcond33.not, label %.loopexit, label %.lr.ph26, !llvm.loop !91

.loopexit:                                        ; preds = %.lr.ph, %.lr.ph26, %.preheader22, %.preheader
  ret void
}